target datalayout = "e-m:e-p270:32:32-p271:32:32-p272:64:64-i64:64-i128:128-f80:128-n8:16:32:64-S128"
target triple = "x86_64-pc-linux-gnu"

%"class.cv::Mat" = type { i32, i32, i32, i32, ptr, ptr, ptr, ptr, ptr, ptr, %"struct.cv::MatSize", %"struct.cv::MatStep" }
%"struct.cv::MatSize" = type { ptr }
%"struct.cv::MatStep" = type { ptr, [2 x i64] }

; Function Attrs: mustprogress uwtable
define void @_ZN2cv9videostab16MotionFilterBase9stabilizeEiRKSt6vectorINS_3MatESaIS3_EERKNS_5RangeEPS3_(ptr noundef nonnull align 8 dereferenceable(8) %0, i32 noundef %1, ptr noundef nonnull align 8 dereferenceable(24) %2, ptr noundef nonnull align 4 dereferenceable(8) %3, ptr noundef %4) unnamed_addr #4 align 2 personality ptr @__gxx_personality_v0 {
  %6 = alloca ptr, align 8
  %7 = alloca i32, align 4
  %8 = alloca ptr, align 8
  %9 = alloca ptr, align 8
  %10 = alloca ptr, align 8
  %11 = alloca i32, align 4
  %12 = alloca %"class.cv::Mat", align 8
  %13 = alloca ptr, align 8
  %14 = alloca i32, align 4
  store ptr %0, ptr %6, align 8
  store i32 %1, ptr %7, align 4
  store ptr %2, ptr %8, align 8
  store ptr %3, ptr %9, align 8
  store ptr %4, ptr %10, align 8
  %15 = load ptr, ptr %6, align 8
  store i32 0, ptr %11, align 4
  br label %16

16:                                               ; preds = %33, %5
  %17 = load i32, ptr %11, align 4
  %18 = load i32, ptr %7, align 4
  %19 = icmp slt i32 %17, %18
  br i1 %19, label %20, label %40

20:                                               ; preds = %16
  %21 = load i32, ptr %11, align 4
  %22 = load ptr, ptr %8, align 8
  %23 = load ptr, ptr %9, align 8
  %24 = load ptr, ptr %15, align 8
  %25 = getelementptr inbounds ptr, ptr %24, i64 3
  %26 = load ptr, ptr %25, align 8
  call void %26(ptr dead_on_unwind writable sret(%"class.cv::Mat") align 8 %12, ptr noundef nonnull align 8 dereferenceable(8) %15, i32 noundef %21, ptr noundef nonnull align 8 dereferenceable(24) %22, ptr noundef nonnull align 4 dereferenceable(8) %23)
  %27 = load ptr, ptr %10, align 8
  %28 = load i32, ptr %11, align 4
  %29 = sext i32 %28 to i64
  %30 = getelementptr inbounds %"class.cv::Mat", ptr %27, i64 %29
  %31 = invoke noundef nonnull align 8 dereferenceable(96) ptr @_ZN2cv3MataSEOS0_(ptr noundef nonnull align 8 dereferenceable(96) %30, ptr noundef nonnull align 8 dereferenceable(96) %12)
          to label %32 unwind label %36

32:                                               ; preds = %20
  call void @_ZN2cv3MatD1Ev(ptr noundef nonnull align 8 dereferenceable(96) %12) #3
  br label %33

33:                                               ; preds = %32
  %34 = load i32, ptr %11, align 4
  %35 = add nsw i32 %34, 1
  store i32 %35, ptr %11, align 4
  br label %16, !llvm.loop !10

36:                                               ; preds = %20
  %37 = landingpad { ptr, i32 }
          cleanup
  %38 = extractvalue { ptr, i32 } %37, 0
  store ptr %38, ptr %13, align 8
  %39 = extractvalue { ptr, i32 } %37, 1
  store i32 %39, ptr %14, align 4
  call void @_ZN2cv3MatD1Ev(ptr noundef nonnull align 8 dereferenceable(96) %12) #3
  br label %41

40:                                               ; preds = %16
  ret void

41:                                               ; preds = %36
  %42 = load ptr, ptr %13, align 8
  %43 = load i32, ptr %14, align 4
  %44 = insertvalue { ptr, i32 } poison, ptr %42, 0
  %45 = insertvalue { ptr, i32 } %44, i32 %43, 1
  resume { ptr, i32 } %45
}